	.file	"template-max.cpp"
	.text
#APP
	.globl _ZSt21ios_base_library_initv
#NO_APP
	.globl	main
	.type	main, @function
main:
.LFB1989:
	.cfi_startproc
	endbr64
	pushq	%rbp
	.cfi_def_cfa_offset 16
	.cfi_offset 6, -16
	movq	%rsp, %rbp
	.cfi_def_cfa_register 6
	movl	$7, %esi
	movl	$3, %edi
	call	_Z3maxIiET_S0_S0_
	movl	%eax, %esi
	leaq	_ZSt4cout(%rip), %rax
	movq	%rax, %rdi
	call	_ZNSolsEi@PLT
	movq	_ZSt4endlIcSt11char_traitsIcEERSt13basic_ostreamIT_T0_ES6_@GOTPCREL(%rip), %rdx
	movq	%rdx, %rsi
	movq	%rax, %rdi
	call	_ZNSolsEPFRSoS_E@PLT
	movsd	.LC0(%rip), %xmm0
	movq	.LC1(%rip), %rax
	movapd	%xmm0, %xmm1
	movq	%rax, %xmm0
	call	_Z3maxIdET_S0_S0_
	movq	%xmm0, %rax
	movq	%rax, %xmm0
	leaq	_ZSt4cout(%rip), %rax
	movq	%rax, %rdi
	call	_ZNSolsEd@PLT
	movq	_ZSt4endlIcSt11char_traitsIcEERSt13basic_ostreamIT_T0_ES6_@GOTPCREL(%rip), %rdx
	movq	%rdx, %rsi
	movq	%rax, %rdi
	call	_ZNSolsEPFRSoS_E@PLT
	movl	$2, %esi
	movl	$3, %edi
	call	_Z3maxIiET_S0_S0_
	movl	%eax, %esi
	leaq	_ZSt4cout(%rip), %rax
	movq	%rax, %rdi
	call	_ZNSolsEi@PLT
	movq	_ZSt4endlIcSt11char_traitsIcEERSt13basic_ostreamIT_T0_ES6_@GOTPCREL(%rip), %rdx
	movq	%rdx, %rsi
	movq	%rax, %rdi
	call	_ZNSolsEPFRSoS_E@PLT
	movl	$0, %eax
	popq	%rbp
	.cfi_def_cfa 7, 8
	ret
	.cfi_endproc
.LFE1989:
	.size	main, .-main
	.section	.text._Z3maxIiET_S0_S0_,"axG",@progbits,_Z3maxIiET_S0_S0_,comdat
	.weak	_Z3maxIiET_S0_S0_
	.type	_Z3maxIiET_S0_S0_, @function
_Z3maxIiET_S0_S0_:
.LFB2244:
	.cfi_startproc
	endbr64
	pushq	%rbp
	.cfi_def_cfa_offset 16
	.cfi_offset 6, -16
	movq	%rsp, %rbp
	.cfi_def_cfa_register 6
	movl	%edi, -4(%rbp)
	movl	%esi, -8(%rbp)
	movl	-4(%rbp), %eax
	cmpl	-8(%rbp), %eax
	jle	.L4
	movl	-4(%rbp), %eax
	jmp	.L5
.L4:
	movl	-8(%rbp), %eax
.L5:
	popq	%rbp
	.cfi_def_cfa 7, 8
	ret
	.cfi_endproc
.LFE2244:
	.size	_Z3maxIiET_S0_S0_, .-_Z3maxIiET_S0_S0_
	.section	.text._Z3maxIdET_S0_S0_,"axG",@progbits,_Z3maxIdET_S0_S0_,comdat
	.weak	_Z3maxIdET_S0_S0_
	.type	_Z3maxIdET_S0_S0_, @function
_Z3maxIdET_S0_S0_:
.LFB2247:
	.cfi_startproc
	endbr64
	pushq	%rbp
	.cfi_def_cfa_offset 16
	.cfi_offset 6, -16
	movq	%rsp, %rbp
	.cfi_def_cfa_register 6
	movsd	%xmm0, -8(%rbp)
	movsd	%xmm1, -16(%rbp)
	movsd	-8(%rbp), %xmm0
	comisd	-16(%rbp), %xmm0
	jbe	.L11
	movsd	-8(%rbp), %xmm0
	jmp	.L9
.L11:
	movsd	-16(%rbp), %xmm0
.L9:
	popq	%rbp
	.cfi_def_cfa 7, 8
	ret
	.cfi_endproc
.LFE2247:
	.size	_Z3maxIdET_S0_S0_, .-_Z3maxIdET_S0_S0_
	.section	.rodata
	.type	_ZNSt8__detail30__integer_to_chars_is_unsignedIjEE, @object
	.size	_ZNSt8__detail30__integer_to_chars_is_unsignedIjEE, 1
_ZNSt8__detail30__integer_to_chars_is_unsignedIjEE:
	.byte	1
	.type	_ZNSt8__detail30__integer_to_chars_is_unsignedImEE, @object
	.size	_ZNSt8__detail30__integer_to_chars_is_unsignedImEE, 1
_ZNSt8__detail30__integer_to_chars_is_unsignedImEE:
	.byte	1
	.type	_ZNSt8__detail30__integer_to_chars_is_unsignedIyEE, @object
	.size	_ZNSt8__detail30__integer_to_chars_is_unsignedIyEE, 1
_ZNSt8__detail30__integer_to_chars_is_unsignedIyEE:
	.byte	1
	.align 8
.LC0:
	.long	2061584302
	.long	1074114068
	.align 8
.LC1:
	.long	1374389535
	.long	1074339512
	.ident	"GCC: (Ubuntu 13.3.0-6ubuntu2~24.04) 13.3.0"
	.section	.note.GNU-stack,"",@progbits
	.section	.note.gnu.property,"a"
	.align 8
	.long	1f - 0f
	.long	4f - 1f
	.long	5
0:
	.string	"GNU"
1:
	.align 8
	.long	0xc0000002
	.long	3f - 2f
2:
	.long	0x3
3:
	.align 8
4:
